target datalayout = "e-m:e-p270:32:32-p271:32:32-p272:64:64-i64:64-i128:128-f80:128-n8:16:32:64-S128"
target triple = "x86_64-pc-linux-gnu"

%struct.png_info_def = type { i32, i32, i32, i64, ptr, i16, i16, i8, i8, i8, i8, i8, i8, i8, i8, [8 x i8], %struct.png_colorspace, ptr, ptr, i32, i32, i32, ptr, %struct.png_time_struct, %struct.png_color_8_struct, ptr, %struct.png_color_16_struct, %struct.png_color_16_struct, i32, i32, i8, i32, i32, i8, i32, ptr, ptr, ptr, ptr, i32, i32, ptr, ptr, i8, i8, i32, ptr, i32, ptr, i32, i8, ptr, ptr, ptr }
%struct.png_colorspace = type { i32, %struct.png_xy, %struct.png_XYZ, i16, i16 }
%struct.png_xy = type { i32, i32, i32, i32, i32, i32, i32, i32 }
%struct.png_XYZ = type { i32, i32, i32, i32, i32, i32, i32, i32, i32 }
%struct.png_time_struct = type { i16, i8, i8, i8, i8, i8 }
%struct.png_color_8_struct = type { i8, i8, i8, i8, i8 }
%struct.png_color_16_struct = type { i8, i16, i16, i16, i16 }

@.str.23 = private unnamed_addr constant [18 x i8] c"Invalid sCAL unit\00", align 1
@.str.24 = private unnamed_addr constant [19 x i8] c"Invalid sCAL width\00", align 1
@.str.25 = private unnamed_addr constant [20 x i8] c"Invalid sCAL height\00", align 1
@.str.26 = private unnamed_addr constant [47 x i8] c"Memory allocation failed while processing sCAL\00", align 1

; Function Attrs: nounwind uwtable
define void @png_set_sCAL_s(ptr noalias noundef %0, ptr noalias noundef %1, i32 noundef %2, ptr noundef %3, ptr noundef %4) #0 {
  %6 = alloca ptr, align 8
  %7 = alloca ptr, align 8
  %8 = alloca i32, align 4
  %9 = alloca ptr, align 8
  %10 = alloca ptr, align 8
  %11 = alloca i64, align 8
  %12 = alloca i64, align 8
  store ptr %0, ptr %6, align 8
  store ptr %1, ptr %7, align 8
  store i32 %2, ptr %8, align 4
  store ptr %3, ptr %9, align 8
  store ptr %4, ptr %10, align 8
  store i64 0, ptr %11, align 8
  store i64 0, ptr %12, align 8
  %13 = load ptr, ptr %6, align 8
  %14 = icmp eq ptr %13, null
  br i1 %14, label %18, label %15

15:                                               ; preds = %5
  %16 = load ptr, ptr %7, align 8
  %17 = icmp eq ptr %16, null
  br i1 %17, label %18, label %19

18:                                               ; preds = %15, %5
  br label %124

19:                                               ; preds = %15
  %20 = load i32, ptr %8, align 4
  %21 = icmp ne i32 %20, 1
  br i1 %21, label %22, label %27

22:                                               ; preds = %19
  %23 = load i32, ptr %8, align 4
  %24 = icmp ne i32 %23, 2
  br i1 %24, label %25, label %27

25:                                               ; preds = %22
  %26 = load ptr, ptr %6, align 8
  call void @png_error(ptr noundef %26, ptr noundef @.str.23) #7
  unreachable

27:                                               ; preds = %22, %19
  %28 = load ptr, ptr %9, align 8
  %29 = icmp eq ptr %28, null
  br i1 %29, label %45, label %30

30:                                               ; preds = %27
  %31 = load ptr, ptr %9, align 8
  %32 = call i64 @strlen(ptr noundef %31) #6
  store i64 %32, ptr %11, align 8
  %33 = icmp eq i64 %32, 0
  br i1 %33, label %45, label %34

34:                                               ; preds = %30
  %35 = load ptr, ptr %9, align 8
  %36 = getelementptr inbounds i8, ptr %35, i64 0
  %37 = load i8, ptr %36, align 1
  %38 = sext i8 %37 to i32
  %39 = icmp eq i32 %38, 45
  br i1 %39, label %45, label %40

40:                                               ; preds = %34
  %41 = load ptr, ptr %9, align 8
  %42 = load i64, ptr %11, align 8
  %43 = call i32 @png_check_fp_string(ptr noundef %41, i64 noundef %42)
  %44 = icmp ne i32 %43, 0
  br i1 %44, label %47, label %45

45:                                               ; preds = %40, %34, %30, %27
  %46 = load ptr, ptr %6, align 8
  call void @png_error(ptr noundef %46, ptr noundef @.str.24) #7
  unreachable

47:                                               ; preds = %40
  %48 = load ptr, ptr %10, align 8
  %49 = icmp eq ptr %48, null
  br i1 %49, label %65, label %50

50:                                               ; preds = %47
  %51 = load ptr, ptr %10, align 8
  %52 = call i64 @strlen(ptr noundef %51) #6
  store i64 %52, ptr %12, align 8
  %53 = icmp eq i64 %52, 0
  br i1 %53, label %65, label %54

54:                                               ; preds = %50
  %55 = load ptr, ptr %10, align 8
  %56 = getelementptr inbounds i8, ptr %55, i64 0
  %57 = load i8, ptr %56, align 1
  %58 = sext i8 %57 to i32
  %59 = icmp eq i32 %58, 45
  br i1 %59, label %65, label %60

60:                                               ; preds = %54
  %61 = load ptr, ptr %10, align 8
  %62 = load i64, ptr %12, align 8
  %63 = call i32 @png_check_fp_string(ptr noundef %61, i64 noundef %62)
  %64 = icmp ne i32 %63, 0
  br i1 %64, label %67, label %65

65:                                               ; preds = %60, %54, %50, %47
  %66 = load ptr, ptr %6, align 8
  call void @png_error(ptr noundef %66, ptr noundef @.str.25) #7
  unreachable

67:                                               ; preds = %60
  %68 = load i32, ptr %8, align 4
  %69 = trunc i32 %68 to i8
  %70 = load ptr, ptr %7, align 8
  %71 = getelementptr inbounds %struct.png_info_def, ptr %70, i32 0, i32 50
  store i8 %69, ptr %71, align 4
  %72 = load i64, ptr %11, align 8
  %73 = add i64 %72, 1
  store i64 %73, ptr %11, align 8
  %74 = load ptr, ptr %6, align 8
  %75 = load i64, ptr %11, align 8
  %76 = call noalias ptr @png_malloc_warn(ptr noundef %74, i64 noundef %75)
  %77 = load ptr, ptr %7, align 8
  %78 = getelementptr inbounds %struct.png_info_def, ptr %77, i32 0, i32 51
  store ptr %76, ptr %78, align 8
  %79 = load ptr, ptr %7, align 8
  %80 = getelementptr inbounds %struct.png_info_def, ptr %79, i32 0, i32 51
  %81 = load ptr, ptr %80, align 8
  %82 = icmp eq ptr %81, null
  br i1 %82, label %83, label %85

83:                                               ; preds = %67
  %84 = load ptr, ptr %6, align 8
  call void @png_warning(ptr noundef %84, ptr noundef @.str.26)
  br label %124

85:                                               ; preds = %67
  %86 = load ptr, ptr %7, align 8
  %87 = getelementptr inbounds %struct.png_info_def, ptr %86, i32 0, i32 51
  %88 = load ptr, ptr %87, align 8
  %89 = load ptr, ptr %9, align 8
  %90 = load i64, ptr %11, align 8
  call void @llvm.memcpy.p0.p0.i64(ptr align 1 %88, ptr align 1 %89, i64 %90, i1 false)
  %91 = load i64, ptr %12, align 8
  %92 = add i64 %91, 1
  store i64 %92, ptr %12, align 8
  %93 = load ptr, ptr %6, align 8
  %94 = load i64, ptr %12, align 8
  %95 = call noalias ptr @png_malloc_warn(ptr noundef %93, i64 noundef %94)
  %96 = load ptr, ptr %7, align 8
  %97 = getelementptr inbounds %struct.png_info_def, ptr %96, i32 0, i32 52
  store ptr %95, ptr %97, align 8
  %98 = load ptr, ptr %7, align 8
  %99 = getelementptr inbounds %struct.png_info_def, ptr %98, i32 0, i32 52
  %100 = load ptr, ptr %99, align 8
  %101 = icmp eq ptr %100, null
  br i1 %101, label %102, label %110

102:                                              ; preds = %85
  %103 = load ptr, ptr %6, align 8
  %104 = load ptr, ptr %7, align 8
  %105 = getelementptr inbounds %struct.png_info_def, ptr %104, i32 0, i32 51
  %106 = load ptr, ptr %105, align 8
  call void @png_free(ptr noundef %103, ptr noundef %106)
  %107 = load ptr, ptr %7, align 8
  %108 = getelementptr inbounds %struct.png_info_def, ptr %107, i32 0, i32 51
  store ptr null, ptr %108, align 8
  %109 = load ptr, ptr %6, align 8
  call void @png_warning(ptr noundef %109, ptr noundef @.str.26)
  br label %124

110:                                              ; preds = %85
  %111 = load ptr, ptr %7, align 8
  %112 = getelementptr inbounds %struct.png_info_def, ptr %111, i32 0, i32 52
  %113 = load ptr, ptr %112, align 8
  %114 = load ptr, ptr %10, align 8
  %115 = load i64, ptr %12, align 8
  call void @llvm.memcpy.p0.p0.i64(ptr align 1 %113, ptr align 1 %114, i64 %115, i1 false)
  %116 = load ptr, ptr %7, align 8
  %117 = getelementptr inbounds %struct.png_info_def, ptr %116, i32 0, i32 45
  %118 = load i32, ptr %117, align 4
  %119 = or i32 %118, 256
  store i32 %119, ptr %117, align 4
  %120 = load ptr, ptr %7, align 8
  %121 = getelementptr inbounds %struct.png_info_def, ptr %120, i32 0, i32 2
  %122 = load i32, ptr %121, align 8
  %123 = or i32 %122, 16384
  store i32 %123, ptr %121, align 8
  br label %124

124:                                              ; preds = %110, %102, %83, %18
  ret void
}