; Function Attrs: nounwind uwtable
define void @png_set_sCAL_s(ptr noalias noundef %0, ptr noalias noundef %1, i32 noundef %2, ptr noundef %3, ptr noundef %4) local_unnamed_addr #2 {
  %6 = icmp eq ptr %0, null
  %7 = icmp eq ptr %1, null
  %or.cond = or i1 %6, %7
  br i1 %or.cond, label %55, label %8

8:                                                ; preds = %5
  %9 = add i32 %2, -3
  %or.cond3 = icmp ult i32 %9, -2
  br i1 %or.cond3, label %10, label %11

10:                                               ; preds = %8
  tail call void @png_error(ptr noundef nonnull %0, ptr noundef nonnull @.str.23) #14
  unreachable

11:                                               ; preds = %8
  %12 = icmp eq ptr %3, null
  br i1 %12, label %21, label %13

13:                                               ; preds = %11
  %14 = tail call i64 @strlen(ptr noundef nonnull dereferenceable(1) %3) #13
  %15 = icmp eq i64 %14, 0
  br i1 %15, label %21, label %16

16:                                               ; preds = %13
  %17 = load i8, ptr %3, align 1
  %18 = icmp eq i8 %17, 45
  br i1 %18, label %21, label %19

19:                                               ; preds = %16
  %20 = tail call i32 @png_check_fp_string(ptr noundef nonnull %3, i64 noundef %14) #12
  %.not = icmp eq i32 %20, 0
  br i1 %.not, label %21, label %22

21:                                               ; preds = %19, %16, %13, %11
  tail call void @png_error(ptr noundef nonnull %0, ptr noundef nonnull @.str.24) #14
  unreachable

22:                                               ; preds = %19
  %23 = icmp eq ptr %4, null
  br i1 %23, label %32, label %24

24:                                               ; preds = %22
  %25 = tail call i64 @strlen(ptr noundef nonnull dereferenceable(1) %4) #13
  %26 = icmp eq i64 %25, 0
  br i1 %26, label %32, label %27

27:                                               ; preds = %24
  %28 = load i8, ptr %4, align 1
  %29 = icmp eq i8 %28, 45
  br i1 %29, label %32, label %30

30:                                               ; preds = %27
  %31 = tail call i32 @png_check_fp_string(ptr noundef nonnull %4, i64 noundef %25) #12
  %.not51 = icmp eq i32 %31, 0
  br i1 %.not51, label %32, label %33

32:                                               ; preds = %30, %27, %24, %22
  tail call void @png_error(ptr noundef nonnull %0, ptr noundef nonnull @.str.25) #14
  unreachable

33:                                               ; preds = %30
  %34 = trunc nuw i32 %2 to i8
  %35 = getelementptr inbounds i8, ptr %1, i64 332
  store i8 %34, ptr %35, align 4
  %36 = add i64 %14, 1
  %37 = tail call noalias ptr @png_malloc_warn(ptr noundef nonnull %0, i64 noundef %36) #12
  %38 = getelementptr inbounds i8, ptr %1, i64 336
  store ptr %37, ptr %38, align 8
  %39 = icmp eq ptr %37, null
  br i1 %39, label %40, label %41

40:                                               ; preds = %33
  tail call void @png_warning(ptr noundef nonnull %0, ptr noundef nonnull @.str.26) #12
  br label %55

41:                                               ; preds = %33
  tail call void @llvm.memcpy.p0.p0.i64(ptr nonnull align 1 %37, ptr nonnull align 1 %3, i64 %36, i1 false)
  %42 = add i64 %25, 1
  %43 = tail call noalias ptr @png_malloc_warn(ptr noundef nonnull %0, i64 noundef %42) #12
  %44 = getelementptr inbounds i8, ptr %1, i64 344
  store ptr %43, ptr %44, align 8
  %45 = icmp eq ptr %43, null
  br i1 %45, label %46, label %48

46:                                               ; preds = %41
  %47 = load ptr, ptr %38, align 8
  tail call void @png_free(ptr noundef nonnull %0, ptr noundef %47) #12
  store ptr null, ptr %38, align 8
  tail call void @png_warning(ptr noundef nonnull %0, ptr noundef nonnull @.str.26) #12
  br label %55

48:                                               ; preds = %41
  tail call void @llvm.memcpy.p0.p0.i64(ptr nonnull align 1 %43, ptr nonnull align 1 %4, i64 %42, i1 false)
  %49 = getelementptr inbounds i8, ptr %1, i64 300
  %50 = load i32, ptr %49, align 4
  %51 = or i32 %50, 256
  store i32 %51, ptr %49, align 4
  %52 = getelementptr inbounds i8, ptr %1, i64 8
  %53 = load i32, ptr %52, align 8
  %54 = or i32 %53, 16384
  store i32 %54, ptr %52, align 8
  br label %55

55:                                               ; preds = %5, %48, %46, %40
  ret void
}